target datalayout = "e-m:e-p270:32:32-p271:32:32-p272:64:64-i64:64-i128:128-f80:128-n8:16:32:64-S128"
target triple = "x86_64-unknown-linux-gnu"

%"class.EA::StdC::DateTime" = type <{ i64, i32, [4 x i8] }>

@_ZN2EA4StdCL11kDaysInYearE = internal constant [26 x i32] [i32 0, i32 31, i32 59, i32 90, i32 120, i32 151, i32 181, i32 212, i32 243, i32 273, i32 304, i32 334, i32 365, i32 0, i32 31, i32 60, i32 91, i32 121, i32 152, i32 182, i32 213, i32 244, i32 274, i32 305, i32 335, i32 366], align 16

; Function Attrs: mustprogress nounwind uwtable
define dso_local noundef zeroext i1 @_ZN2EA4StdC10IsLeapYearEj(i32 noundef %nYear) #3 {
entry:
  %nYear.addr = alloca i32, align 4
  store i32 %nYear, ptr %nYear.addr, align 4
  %0 = load i32, ptr %nYear.addr, align 4
  %and = and i32 %0, 3
  %tobool = icmp ne i32 %and, 0
  br i1 %tobool, label %lor.rhs, label %land.lhs.true

land.lhs.true:                                    ; preds = %entry
  %1 = load i32, ptr %nYear.addr, align 4
  %rem = urem i32 %1, 100
  %tobool1 = icmp ne i32 %rem, 0
  br i1 %tobool1, label %lor.end, label %lor.rhs

lor.rhs:                                          ; preds = %land.lhs.true, %entry
  %2 = load i32, ptr %nYear.addr, align 4
  %rem2 = urem i32 %2, 400
  %tobool3 = icmp ne i32 %rem2, 0
  %lnot = xor i1 %tobool3, true
  br label %lor.end

lor.end:                                          ; preds = %lor.rhs, %land.lhs.true
  %3 = phi i1 [ true, %land.lhs.true ], [ %lnot, %lor.rhs ]
  ret i1 %3
}

; Function Attrs: mustprogress uwtable
define dso_local noundef i32 @_ZNK2EA4StdC8DateTime12GetParameterENS0_9ParameterE(ptr noundef nonnull align 8 dereferenceable(12) %this, i32 noundef %parameter) #0 align 2 {
entry:
  %this.addr = alloca ptr, align 8
  %parameter.addr = alloca i32, align 4
  %result = alloca i32, align 4
  %nDays = alloca i64, align 8
  %leapYearCount = alloca i64, align 8
  %nYear = alloca i32, align 4
  %nDayOfYear = alloca i32, align 4
  %bLeap = alloca i8, align 1
  %nMonth = alloca i32, align 4
  %nYear25 = alloca i32, align 4
  %nDays27 = alloca i64, align 8
  %leapYearCount30 = alloca i32, align 4
  %nYear49 = alloca i32, align 4
  %nMonth51 = alloca i32, align 4
  %nDayOfYear53 = alloca i32, align 4
  %isLeapYear = alloca i32, align 4
  %nDays63 = alloca i64, align 8
  %nDayOfYear84 = alloca i32, align 4
  %nDayOfMonth = alloca i32, align 4
  store ptr %this, ptr %this.addr, align 8
  store i32 %parameter, ptr %parameter.addr, align 4
  %this1 = load ptr, ptr %this.addr, align 8
  store i32 0, ptr %result, align 4
  %0 = load i32, ptr %parameter.addr, align 4
  switch i32 %0, label %sw.default [
    i32 1, label %sw.bb
    i32 2, label %sw.bb15
    i32 5, label %sw.bb24
    i32 6, label %sw.bb48
    i32 7, label %sw.bb62
    i32 8, label %sw.bb68
    i32 9, label %sw.bb73
    i32 10, label %sw.bb78
    i32 11, label %sw.bb82
    i32 3, label %sw.bb83
    i32 4, label %sw.bb89
    i32 0, label %sw.bb94
  ]

sw.bb:                                            ; preds = %entry
  %mnSeconds = getelementptr inbounds %"class.EA::StdC::DateTime", ptr %this1, i32 0, i32 0
  %1 = load i64, ptr %mnSeconds, align 8
  %div = sdiv i64 %1, 86400
  store i64 %div, ptr %nDays, align 8
  %2 = load i64, ptr %nDays, align 8
  %div2 = sdiv i64 %2, 365
  %sub = sub nsw i64 %div2, 1
  %div3 = sdiv i64 %sub, 4
  %3 = load i64, ptr %nDays, align 8
  %div4 = sdiv i64 %3, 365
  %sub5 = sub nsw i64 %div4, 1
  %div6 = sdiv i64 %sub5, 100
  %sub7 = sub nsw i64 %div3, %div6
  %4 = load i64, ptr %nDays, align 8
  %div8 = sdiv i64 %4, 365
  %sub9 = sub nsw i64 %div8, 1
  %div10 = sdiv i64 %sub9, 400
  %add = add nsw i64 %sub7, %div10
  store i64 %add, ptr %leapYearCount, align 8
  %5 = load i64, ptr %nDays, align 8
  %sub11 = sub nsw i64 %5, 1
  %6 = load i64, ptr %leapYearCount, align 8
  %sub12 = sub nsw i64 %sub11, %6
  %div13 = sdiv i64 %sub12, 365
  %conv = trunc i64 %div13 to i32
  %add14 = add i32 1, %conv
  store i32 %add14, ptr %result, align 4
  br label %sw.epilog

sw.bb15:                                          ; preds = %entry
  %call = call noundef i32 @_ZNK2EA4StdC8DateTime12GetParameterENS0_9ParameterE(ptr noundef nonnull align 8 dereferenceable(12) %this1, i32 noundef 1)
  store i32 %call, ptr %nYear, align 4
  %call16 = call noundef i32 @_ZNK2EA4StdC8DateTime12GetParameterENS0_9ParameterE(ptr noundef nonnull align 8 dereferenceable(12) %this1, i32 noundef 5)
  store i32 %call16, ptr %nDayOfYear, align 4
  %7 = load i32, ptr %nYear, align 4
  %call17 = call noundef zeroext i1 @_ZN2EA4StdC10IsLeapYearEj(i32 noundef %7)
  %frombool = zext i1 %call17 to i8
  store i8 %frombool, ptr %bLeap, align 1
  store i32 1, ptr %nMonth, align 4
  br label %for.cond

for.cond:                                         ; preds = %for.inc, %sw.bb15
  %8 = load i32, ptr %nMonth, align 4
  %cmp = icmp ule i32 %8, 12
  br i1 %cmp, label %for.body, label %for.end

for.body:                                         ; preds = %for.cond
  %9 = load i32, ptr %nDayOfYear, align 4
  %10 = load i32, ptr %nMonth, align 4
  %11 = load i8, ptr %bLeap, align 1
  %tobool = trunc i8 %11 to i1
  %conv18 = zext i1 %tobool to i32
  %mul = mul nsw i32 13, %conv18
  %add19 = add i32 %10, %mul
  %idxprom = zext i32 %add19 to i64
  %arrayidx = getelementptr inbounds [26 x i32], ptr @_ZN2EA4StdCL11kDaysInYearE, i64 0, i64 %idxprom
  %12 = load i32, ptr %arrayidx, align 4
  %cmp20 = icmp ule i32 %9, %12
  br i1 %cmp20, label %if.then, label %if.end

if.then:                                          ; preds = %for.body
  %13 = load i32, ptr %nMonth, align 4
  store i32 %13, ptr %result, align 4
  br label %for.end

if.end:                                           ; preds = %for.body
  br label %for.inc

for.inc:                                          ; preds = %if.end
  %14 = load i32, ptr %nMonth, align 4
  %inc = add i32 %14, 1
  store i32 %inc, ptr %nMonth, align 4
  br label %for.cond, !llvm.loop !6

for.end:                                          ; preds = %if.then, %for.cond
  %15 = load i32, ptr %result, align 4
  %cmp21 = icmp eq i32 %15, 0
  br i1 %cmp21, label %if.then22, label %if.end23

if.then22:                                        ; preds = %for.end
  store i32 1, ptr %result, align 4
  br label %if.end23

if.end23:                                         ; preds = %if.then22, %for.end
  br label %sw.epilog

sw.bb24:                                          ; preds = %entry
  %call26 = call noundef i32 @_ZNK2EA4StdC8DateTime12GetParameterENS0_9ParameterE(ptr noundef nonnull align 8 dereferenceable(12) %this1, i32 noundef 1)
  store i32 %call26, ptr %nYear25, align 4
  %mnSeconds28 = getelementptr inbounds %"class.EA::StdC::DateTime", ptr %this1, i32 0, i32 0
  %16 = load i64, ptr %mnSeconds28, align 8
  %div29 = sdiv i64 %16, 86400
  store i64 %div29, ptr %nDays27, align 8
  %17 = load i32, ptr %nYear25, align 4
  %sub31 = sub i32 %17, 1
  %div32 = udiv i32 %sub31, 4
  %18 = load i32, ptr %nYear25, align 4
  %sub33 = sub i32 %18, 1
  %div34 = udiv i32 %sub33, 100
  %sub35 = sub i32 %div32, %div34
  %19 = load i32, ptr %nYear25, align 4
  %sub36 = sub i32 %19, 1
  %div37 = udiv i32 %sub36, 400
  %add38 = add i32 %sub35, %div37
  store i32 %add38, ptr %leapYearCount30, align 4
  %20 = load i64, ptr %nDays27, align 8
  %21 = load i32, ptr %nYear25, align 4
  %sub39 = sub i32 %21, 1
  %mul40 = mul i32 %sub39, 365
  %22 = load i32, ptr %leapYearCount30, align 4
  %add41 = add i32 %mul40, %22
  %conv42 = zext i32 %add41 to i64
  %sub43 = sub nsw i64 %20, %conv42
  %conv44 = trunc i64 %sub43 to i32
  store i32 %conv44, ptr %result, align 4
  %23 = load i32, ptr %result, align 4
  %cmp45 = icmp eq i32 %23, 0
  br i1 %cmp45, label %if.then46, label %if.end47

if.then46:                                        ; preds = %sw.bb24
  store i32 1, ptr %result, align 4
  br label %if.end47

if.end47:                                         ; preds = %if.then46, %sw.bb24
  br label %sw.epilog

sw.bb48:                                          ; preds = %entry
  %call50 = call noundef i32 @_ZNK2EA4StdC8DateTime12GetParameterENS0_9ParameterE(ptr noundef nonnull align 8 dereferenceable(12) %this1, i32 noundef 1)
  store i32 %call50, ptr %nYear49, align 4
  %call52 = call noundef i32 @_ZNK2EA4StdC8DateTime12GetParameterENS0_9ParameterE(ptr noundef nonnull align 8 dereferenceable(12) %this1, i32 noundef 2)
  store i32 %call52, ptr %nMonth51, align 4
  %call54 = call noundef i32 @_ZNK2EA4StdC8DateTime12GetParameterENS0_9ParameterE(ptr noundef nonnull align 8 dereferenceable(12) %this1, i32 noundef 5)
  store i32 %call54, ptr %nDayOfYear53, align 4
  %24 = load i32, ptr %nYear49, align 4
  %call55 = call noundef zeroext i1 @_ZN2EA4StdC10IsLeapYearEj(i32 noundef %24)
  %cond = select i1 %call55, i32 1, i32 0
  store i32 %cond, ptr %isLeapYear, align 4
  %25 = load i32, ptr %nDayOfYear53, align 4
  %26 = load i32, ptr %nMonth51, align 4
  %sub56 = sub i32 %26, 1
  %27 = load i32, ptr %isLeapYear, align 4
  %mul57 = mul nsw i32 13, %27
  %add58 = add i32 %sub56, %mul57
  %idxprom59 = zext i32 %add58 to i64
  %arrayidx60 = getelementptr inbounds [26 x i32], ptr @_ZN2EA4StdCL11kDaysInYearE, i64 0, i64 %idxprom59
  %28 = load i32, ptr %arrayidx60, align 4
  %sub61 = sub i32 %25, %28
  store i32 %sub61, ptr %result, align 4
  br label %sw.epilog

sw.bb62:                                          ; preds = %entry
  %mnSeconds64 = getelementptr inbounds %"class.EA::StdC::DateTime", ptr %this1, i32 0, i32 0
  %29 = load i64, ptr %mnSeconds64, align 8
  %div65 = sdiv i64 %29, 86400
  store i64 %div65, ptr %nDays63, align 8
  %30 = load i64, ptr %nDays63, align 8
  %rem = srem i64 %30, 7
  %conv66 = trunc i64 %rem to i32
  %add67 = add i32 1, %conv66
  store i32 %add67, ptr %result, align 4
  br label %sw.epilog

sw.bb68:                                          ; preds = %entry
  %mnSeconds69 = getelementptr inbounds %"class.EA::StdC::DateTime", ptr %this1, i32 0, i32 0
  %31 = load i64, ptr %mnSeconds69, align 8
  %div70 = sdiv i64 %31, 3600
  %rem71 = srem i64 %div70, 24
  %conv72 = trunc i64 %rem71 to i32
  store i32 %conv72, ptr %result, align 4
  br label %sw.epilog

sw.bb73:                                          ; preds = %entry
  %mnSeconds74 = getelementptr inbounds %"class.EA::StdC::DateTime", ptr %this1, i32 0, i32 0
  %32 = load i64, ptr %mnSeconds74, align 8
  %div75 = sdiv i64 %32, 60
  %rem76 = srem i64 %div75, 60
  %conv77 = trunc i64 %rem76 to i32
  store i32 %conv77, ptr %result, align 4
  br label %sw.epilog

sw.bb78:                                          ; preds = %entry
  %mnSeconds79 = getelementptr inbounds %"class.EA::StdC::DateTime", ptr %this1, i32 0, i32 0
  %33 = load i64, ptr %mnSeconds79, align 8
  %rem80 = srem i64 %33, 60
  %conv81 = trunc i64 %rem80 to i32
  store i32 %conv81, ptr %result, align 4
  br label %sw.epilog

sw.bb82:                                          ; preds = %entry
  %mnNanosecond = getelementptr inbounds %"class.EA::StdC::DateTime", ptr %this1, i32 0, i32 1
  %34 = load i32, ptr %mnNanosecond, align 8
  store i32 %34, ptr %result, align 4
  br label %sw.epilog

sw.bb83:                                          ; preds = %entry
  %call85 = call noundef i32 @_ZNK2EA4StdC8DateTime12GetParameterENS0_9ParameterE(ptr noundef nonnull align 8 dereferenceable(12) %this1, i32 noundef 5)
  store i32 %call85, ptr %nDayOfYear84, align 4
  %35 = load i32, ptr %nDayOfYear84, align 4
  %sub86 = sub i32 %35, 1
  %div87 = udiv i32 %sub86, 7
  %add88 = add i32 1, %div87
  store i32 %add88, ptr %result, align 4
  br label %sw.epilog

sw.bb89:                                          ; preds = %entry
  %call90 = call noundef i32 @_ZNK2EA4StdC8DateTime12GetParameterENS0_9ParameterE(ptr noundef nonnull align 8 dereferenceable(12) %this1, i32 noundef 6)
  store i32 %call90, ptr %nDayOfMonth, align 4
  %36 = load i32, ptr %nDayOfMonth, align 4
  %sub91 = sub i32 %36, 1
  %div92 = udiv i32 %sub91, 7
  %add93 = add i32 1, %div92
  store i32 %add93, ptr %result, align 4
  br label %sw.epilog

sw.bb94:                                          ; preds = %entry
  br label %sw.default

sw.default:                                       ; preds = %sw.bb94, %entry
  br label %sw.epilog

sw.epilog:                                        ; preds = %sw.default, %sw.bb89, %sw.bb83, %sw.bb82, %sw.bb78, %sw.bb73, %sw.bb68, %sw.bb62, %sw.bb48, %if.end47, %if.end23, %sw.bb
  %37 = load i32, ptr %result, align 4
  ret i32 %37
}

; Function Attrs: mustprogress uwtable
define linkonce_odr dso_local void @_ZN2EA4StdC8DateTimeC2Ejjjjjjj(ptr noundef nonnull align 8 dereferenceable(12) %this, i32 noundef %nYear, i32 noundef %nMonth, i32 noundef %nDayOfMonth, i32 noundef %nHour, i32 noundef %nMinute, i32 noundef %nSecond, i32 noundef %nNanosecond) unnamed_addr #0 comdat align 2 {
entry:
  %this.addr = alloca ptr, align 8
  %nYear.addr = alloca i32, align 4
  %nMonth.addr = alloca i32, align 4
  %nDayOfMonth.addr = alloca i32, align 4
  %nHour.addr = alloca i32, align 4
  %nMinute.addr = alloca i32, align 4
  %nSecond.addr = alloca i32, align 4
  %nNanosecond.addr = alloca i32, align 4
  store ptr %this, ptr %this.addr, align 8
  store i32 %nYear, ptr %nYear.addr, align 4
  store i32 %nMonth, ptr %nMonth.addr, align 4
  store i32 %nDayOfMonth, ptr %nDayOfMonth.addr, align 4
  store i32 %nHour, ptr %nHour.addr, align 4
  store i32 %nMinute, ptr %nMinute.addr, align 4
  store i32 %nSecond, ptr %nSecond.addr, align 4
  store i32 %nNanosecond, ptr %nNanosecond.addr, align 4
  %this1 = load ptr, ptr %this.addr, align 8
  %mnSeconds = getelementptr inbounds %"class.EA::StdC::DateTime", ptr %this1, i32 0, i32 0
  store i64 0, ptr %mnSeconds, align 8
  %mnNanosecond = getelementptr inbounds %"class.EA::StdC::DateTime", ptr %this1, i32 0, i32 1
  store i32 0, ptr %mnNanosecond, align 8
  %0 = load i32, ptr %nYear.addr, align 4
  %1 = load i32, ptr %nMonth.addr, align 4
  %2 = load i32, ptr %nDayOfMonth.addr, align 4
  %3 = load i32, ptr %nHour.addr, align 4
  %4 = load i32, ptr %nMinute.addr, align 4
  %5 = load i32, ptr %nSecond.addr, align 4
  %6 = load i32, ptr %nNanosecond.addr, align 4
  call void @_ZN2EA4StdC8DateTime3SetEjjjjjjj(ptr noundef nonnull align 8 dereferenceable(12) %this1, i32 noundef %0, i32 noundef %1, i32 noundef %2, i32 noundef %3, i32 noundef %4, i32 noundef %5, i32 noundef %6)
  ret void
}

; Function Attrs: mustprogress uwtable
define dso_local noundef i32 @_ZN2EA4StdC12GetDayOfYearEjjj(i32 noundef %nMonth, i32 noundef %nDayOfMonth, i32 noundef %nYear) #0 {
entry:
  %nMonth.addr = alloca i32, align 4
  %nDayOfMonth.addr = alloca i32, align 4
  %nYear.addr = alloca i32, align 4
  %sDateTime = alloca %"class.EA::StdC::DateTime", align 8
  store i32 %nMonth, ptr %nMonth.addr, align 4
  store i32 %nDayOfMonth, ptr %nDayOfMonth.addr, align 4
  store i32 %nYear, ptr %nYear.addr, align 4
  %0 = load i32, ptr %nYear.addr, align 4
  %1 = load i32, ptr %nMonth.addr, align 4
  %2 = load i32, ptr %nDayOfMonth.addr, align 4
  call void @_ZN2EA4StdC8DateTimeC2Ejjjjjjj(ptr noundef nonnull align 8 dereferenceable(12) %sDateTime, i32 noundef %0, i32 noundef %1, i32 noundef %2, i32 noundef 0, i32 noundef 0, i32 noundef 0, i32 noundef 0)
  %call = call noundef i32 @_ZNK2EA4StdC8DateTime12GetParameterENS0_9ParameterE(ptr noundef nonnull align 8 dereferenceable(12) %sDateTime, i32 noundef 5)
  ret i32 %call
}