; Function Attrs: mustprogress nofree nosync nounwind willreturn memory(none) uwtable
define dso_local noundef i32 @_ZN2EA4StdC12GetDayOfYearEjjj(i32 noundef %nMonth, i32 noundef %nDayOfMonth, i32 noundef %nYear) local_unnamed_addr #11 {
entry:
  %sDateTime = alloca %"class.EA::StdC::DateTime", align 8
  store i64 0, ptr %sDateTime, align 8
  %mnNanosecond.i = getelementptr inbounds nuw i8, ptr %sDateTime, i64 8
  store i32 0, ptr %mnNanosecond.i, align 8
  call void @_ZN2EA4StdC8DateTime3SetEjjjjjjj(ptr noundef nonnull align 8 dereferenceable(12) %sDateTime, i32 noundef %nYear, i32 noundef %nMonth, i32 noundef %nDayOfMonth, i32 noundef 0, i32 noundef 0, i32 noundef 0, i32 noundef 0)
  %0 = load i64, ptr %sDateTime, align 8
  %div.i14.i = sdiv i64 %0, 86400
  %div2.i15.i = sdiv i64 %0, 31536000
  %sub.i16.i = add nsw i64 %div2.i15.i, -1
  %div3.neg.i17.i = sdiv i64 %sub.i16.i, -4
  %div6.neg.neg.i18.i = sdiv i64 %sub.i16.i, 100
  %div10.neg.i20.i = sdiv i64 %sub.i16.i, -400
  %sub7.neg.i19.i = add nsw i64 %div.i14.i, -1
  %add.neg.i21.i = add nsw i64 %sub7.neg.i19.i, %div3.neg.i17.i
  %sub11.i22.i = add nsw i64 %add.neg.i21.i, %div6.neg.neg.i18.i
  %sub12.i23.i = add nsw i64 %sub11.i22.i, %div10.neg.i20.i
  %div13.i24.i = sdiv i64 %sub12.i23.i, 365
  %conv.i25.i = trunc i64 %div13.i24.i to i32
  %div3213.i = lshr i32 %conv.i25.i, 2
  %div34.i = udiv i32 %conv.i25.i, 100
  %sub35.i = sub nsw i32 %div3213.i, %div34.i
  %div37.i = udiv i32 %conv.i25.i, 400
  %add38.i = add nsw i32 %sub35.i, %div37.i
  %mul40.i = mul i32 %conv.i25.i, 365
  %add41.i = add i32 %add38.i, %mul40.i
  %1 = trunc i64 %div.i14.i to i32
  %conv44.i = sub i32 %1, %add41.i
  %cmp45.i = icmp eq i32 %add41.i, %1
  %spec.store.select1.i = select i1 %cmp45.i, i32 1, i32 %conv44.i
  ret i32 %spec.store.select1.i
}